target datalayout = "e-m:e-p270:32:32-p271:32:32-p272:64:64-i64:64-i128:128-f80:128-n8:16:32:64-S128"
target triple = "x86_64-pc-linux-gnu"

%struct.nghttp2_frame_hd = type { i64, i32, i8, i8, i8 }
%struct.nghttp2_data = type { %struct.nghttp2_frame_hd, i64 }
%struct.nghttp2_rst_stream = type { %struct.nghttp2_frame_hd, i32 }
%struct.nghttp2_goaway = type { %struct.nghttp2_frame_hd, i32, i32, ptr, i64, i8 }
%struct.nghttp2_window_update = type { %struct.nghttp2_frame_hd, i32, i8 }

@.str.16 = private unnamed_addr constant [39 x i8] c"FRAME[DATA, len=%d, eos=%d, padlen=%d]\00", align 1
@.str.17 = private unnamed_addr constant [40 x i8] c"FRAME[HEADERS, len=%d, hend=%d, eos=%d]\00", align 1
@.str.18 = private unnamed_addr constant [34 x i8] c"FRAME[PRIORITY, len=%d, flags=%d]\00", align 1
@.str.19 = private unnamed_addr constant [46 x i8] c"FRAME[RST_STREAM, len=%d, flags=%d, error=%u]\00", align 1
@.str.20 = private unnamed_addr constant [23 x i8] c"FRAME[SETTINGS, ack=1]\00", align 1
@.str.21 = private unnamed_addr constant [24 x i8] c"FRAME[SETTINGS, len=%d]\00", align 1
@.str.22 = private unnamed_addr constant [37 x i8] c"FRAME[PUSH_PROMISE, len=%d, hend=%d]\00", align 1
@.str.23 = private unnamed_addr constant [28 x i8] c"FRAME[PING, len=%d, ack=%d]\00", align 1
@.str.24 = private unnamed_addr constant [53 x i8] c"FRAME[GOAWAY, error=%d, reason='%s', last_stream=%d]\00", align 1
@.str.25 = private unnamed_addr constant [30 x i8] c"FRAME[WINDOW_UPDATE, incr=%d]\00", align 1
@.str.26 = private unnamed_addr constant [28 x i8] c"FRAME[%d, len=%d, flags=%d]\00", align 1

; Function Attrs: nounwind uwtable
define internal i32 @proxy_h2_fr_print(ptr noundef %0, ptr noundef %1, i64 noundef %2) #0 {
  %4 = alloca i32, align 4
  %5 = alloca ptr, align 8
  %6 = alloca ptr, align 8
  %7 = alloca i64, align 8
  %8 = alloca [128 x i8], align 16
  %9 = alloca i64, align 8
  %10 = alloca i64, align 8
  store ptr %0, ptr %5, align 8, !tbaa !116
  store ptr %1, ptr %6, align 8, !tbaa !117
  store i64 %2, ptr %7, align 8, !tbaa !41
  %11 = load ptr, ptr %5, align 8, !tbaa !116
  %12 = getelementptr inbounds nuw %struct.nghttp2_frame_hd, ptr %11, i32 0, i32 2
  %13 = load i8, ptr %12, align 4, !tbaa !132
  %14 = zext i8 %13 to i32
  switch i32 %14, label %181 [
    i32 0, label %15
    i32 1, label %36
    i32 2, label %62
    i32 3, label %74
    i32 4, label %89
    i32 5, label %108
    i32 6, label %125
    i32 7, label %138
    i32 8, label %174
  ]

15:                                               ; preds = %3
  %16 = load ptr, ptr %6, align 8, !tbaa !117
  %17 = load i64, ptr %7, align 8, !tbaa !41
  %18 = load ptr, ptr %5, align 8, !tbaa !116
  %19 = getelementptr inbounds nuw %struct.nghttp2_frame_hd, ptr %18, i32 0, i32 0
  %20 = load i64, ptr %19, align 8, !tbaa !132
  %21 = trunc i64 %20 to i32
  %22 = load ptr, ptr %5, align 8, !tbaa !116
  %23 = getelementptr inbounds nuw %struct.nghttp2_frame_hd, ptr %22, i32 0, i32 3
  %24 = load i8, ptr %23, align 1, !tbaa !132
  %25 = zext i8 %24 to i32
  %26 = and i32 %25, 1
  %27 = icmp ne i32 %26, 0
  %28 = xor i1 %27, true
  %29 = xor i1 %28, true
  %30 = zext i1 %29 to i32
  %31 = load ptr, ptr %5, align 8, !tbaa !116
  %32 = getelementptr inbounds nuw %struct.nghttp2_data, ptr %31, i32 0, i32 1
  %33 = load i64, ptr %32, align 8, !tbaa !132
  %34 = trunc i64 %33 to i32
  %35 = call i32 (ptr, i64, ptr, ...) @curl_msnprintf(ptr noundef %16, i64 noundef %17, ptr noundef @.str.16, i32 noundef %21, i32 noundef %30, i32 noundef %34)
  store i32 %35, ptr %4, align 4
  br label %197

36:                                               ; preds = %3
  %37 = load ptr, ptr %6, align 8, !tbaa !117
  %38 = load i64, ptr %7, align 8, !tbaa !41
  %39 = load ptr, ptr %5, align 8, !tbaa !116
  %40 = getelementptr inbounds nuw %struct.nghttp2_frame_hd, ptr %39, i32 0, i32 0
  %41 = load i64, ptr %40, align 8, !tbaa !132
  %42 = trunc i64 %41 to i32
  %43 = load ptr, ptr %5, align 8, !tbaa !116
  %44 = getelementptr inbounds nuw %struct.nghttp2_frame_hd, ptr %43, i32 0, i32 3
  %45 = load i8, ptr %44, align 1, !tbaa !132
  %46 = zext i8 %45 to i32
  %47 = and i32 %46, 4
  %48 = icmp ne i32 %47, 0
  %49 = xor i1 %48, true
  %50 = xor i1 %49, true
  %51 = zext i1 %50 to i32
  %52 = load ptr, ptr %5, align 8, !tbaa !116
  %53 = getelementptr inbounds nuw %struct.nghttp2_frame_hd, ptr %52, i32 0, i32 3
  %54 = load i8, ptr %53, align 1, !tbaa !132
  %55 = zext i8 %54 to i32
  %56 = and i32 %55, 1
  %57 = icmp ne i32 %56, 0
  %58 = xor i1 %57, true
  %59 = xor i1 %58, true
  %60 = zext i1 %59 to i32
  %61 = call i32 (ptr, i64, ptr, ...) @curl_msnprintf(ptr noundef %37, i64 noundef %38, ptr noundef @.str.17, i32 noundef %42, i32 noundef %51, i32 noundef %60)
  store i32 %61, ptr %4, align 4
  br label %197

62:                                               ; preds = %3
  %63 = load ptr, ptr %6, align 8, !tbaa !117
  %64 = load i64, ptr %7, align 8, !tbaa !41
  %65 = load ptr, ptr %5, align 8, !tbaa !116
  %66 = getelementptr inbounds nuw %struct.nghttp2_frame_hd, ptr %65, i32 0, i32 0
  %67 = load i64, ptr %66, align 8, !tbaa !132
  %68 = trunc i64 %67 to i32
  %69 = load ptr, ptr %5, align 8, !tbaa !116
  %70 = getelementptr inbounds nuw %struct.nghttp2_frame_hd, ptr %69, i32 0, i32 3
  %71 = load i8, ptr %70, align 1, !tbaa !132
  %72 = zext i8 %71 to i32
  %73 = call i32 (ptr, i64, ptr, ...) @curl_msnprintf(ptr noundef %63, i64 noundef %64, ptr noundef @.str.18, i32 noundef %68, i32 noundef %72)
  store i32 %73, ptr %4, align 4
  br label %197

74:                                               ; preds = %3
  %75 = load ptr, ptr %6, align 8, !tbaa !117
  %76 = load i64, ptr %7, align 8, !tbaa !41
  %77 = load ptr, ptr %5, align 8, !tbaa !116
  %78 = getelementptr inbounds nuw %struct.nghttp2_frame_hd, ptr %77, i32 0, i32 0
  %79 = load i64, ptr %78, align 8, !tbaa !132
  %80 = trunc i64 %79 to i32
  %81 = load ptr, ptr %5, align 8, !tbaa !116
  %82 = getelementptr inbounds nuw %struct.nghttp2_frame_hd, ptr %81, i32 0, i32 3
  %83 = load i8, ptr %82, align 1, !tbaa !132
  %84 = zext i8 %83 to i32
  %85 = load ptr, ptr %5, align 8, !tbaa !116
  %86 = getelementptr inbounds nuw %struct.nghttp2_rst_stream, ptr %85, i32 0, i32 1
  %87 = load i32, ptr %86, align 8, !tbaa !132
  %88 = call i32 (ptr, i64, ptr, ...) @curl_msnprintf(ptr noundef %75, i64 noundef %76, ptr noundef @.str.19, i32 noundef %80, i32 noundef %84, i32 noundef %87)
  store i32 %88, ptr %4, align 4
  br label %197

89:                                               ; preds = %3
  %90 = load ptr, ptr %5, align 8, !tbaa !116
  %91 = getelementptr inbounds nuw %struct.nghttp2_frame_hd, ptr %90, i32 0, i32 3
  %92 = load i8, ptr %91, align 1, !tbaa !132
  %93 = zext i8 %92 to i32
  %94 = and i32 %93, 1
  %95 = icmp ne i32 %94, 0
  br i1 %95, label %96, label %100

96:                                               ; preds = %89
  %97 = load ptr, ptr %6, align 8, !tbaa !117
  %98 = load i64, ptr %7, align 8, !tbaa !41
  %99 = call i32 (ptr, i64, ptr, ...) @curl_msnprintf(ptr noundef %97, i64 noundef %98, ptr noundef @.str.20)
  store i32 %99, ptr %4, align 4
  br label %197

100:                                              ; preds = %89
  %101 = load ptr, ptr %6, align 8, !tbaa !117
  %102 = load i64, ptr %7, align 8, !tbaa !41
  %103 = load ptr, ptr %5, align 8, !tbaa !116
  %104 = getelementptr inbounds nuw %struct.nghttp2_frame_hd, ptr %103, i32 0, i32 0
  %105 = load i64, ptr %104, align 8, !tbaa !132
  %106 = trunc i64 %105 to i32
  %107 = call i32 (ptr, i64, ptr, ...) @curl_msnprintf(ptr noundef %101, i64 noundef %102, ptr noundef @.str.21, i32 noundef %106)
  store i32 %107, ptr %4, align 4
  br label %197

108:                                              ; preds = %3
  %109 = load ptr, ptr %6, align 8, !tbaa !117
  %110 = load i64, ptr %7, align 8, !tbaa !41
  %111 = load ptr, ptr %5, align 8, !tbaa !116
  %112 = getelementptr inbounds nuw %struct.nghttp2_frame_hd, ptr %111, i32 0, i32 0
  %113 = load i64, ptr %112, align 8, !tbaa !132
  %114 = trunc i64 %113 to i32
  %115 = load ptr, ptr %5, align 8, !tbaa !116
  %116 = getelementptr inbounds nuw %struct.nghttp2_frame_hd, ptr %115, i32 0, i32 3
  %117 = load i8, ptr %116, align 1, !tbaa !132
  %118 = zext i8 %117 to i32
  %119 = and i32 %118, 4
  %120 = icmp ne i32 %119, 0
  %121 = xor i1 %120, true
  %122 = xor i1 %121, true
  %123 = zext i1 %122 to i32
  %124 = call i32 (ptr, i64, ptr, ...) @curl_msnprintf(ptr noundef %109, i64 noundef %110, ptr noundef @.str.22, i32 noundef %114, i32 noundef %123)
  store i32 %124, ptr %4, align 4
  br label %197

125:                                              ; preds = %3
  %126 = load ptr, ptr %6, align 8, !tbaa !117
  %127 = load i64, ptr %7, align 8, !tbaa !41
  %128 = load ptr, ptr %5, align 8, !tbaa !116
  %129 = getelementptr inbounds nuw %struct.nghttp2_frame_hd, ptr %128, i32 0, i32 0
  %130 = load i64, ptr %129, align 8, !tbaa !132
  %131 = trunc i64 %130 to i32
  %132 = load ptr, ptr %5, align 8, !tbaa !116
  %133 = getelementptr inbounds nuw %struct.nghttp2_frame_hd, ptr %132, i32 0, i32 3
  %134 = load i8, ptr %133, align 1, !tbaa !132
  %135 = zext i8 %134 to i32
  %136 = and i32 %135, 1
  %137 = call i32 (ptr, i64, ptr, ...) @curl_msnprintf(ptr noundef %126, i64 noundef %127, ptr noundef @.str.23, i32 noundef %131, i32 noundef %136)
  store i32 %137, ptr %4, align 4
  br label %197

138:                                              ; preds = %3
  call void @llvm.lifetime.start.p0(i64 128, ptr %8) #6
  call void @llvm.lifetime.start.p0(i64 8, ptr %9) #6
  store i64 128, ptr %9, align 8, !tbaa !41
  call void @llvm.lifetime.start.p0(i64 8, ptr %10) #6
  %139 = load ptr, ptr %5, align 8, !tbaa !116
  %140 = getelementptr inbounds nuw %struct.nghttp2_goaway, ptr %139, i32 0, i32 4
  %141 = load i64, ptr %140, align 8, !tbaa !132
  %142 = load i64, ptr %9, align 8, !tbaa !41
  %143 = icmp ult i64 %141, %142
  br i1 %143, label %144, label %148

144:                                              ; preds = %138
  %145 = load ptr, ptr %5, align 8, !tbaa !116
  %146 = getelementptr inbounds nuw %struct.nghttp2_goaway, ptr %145, i32 0, i32 4
  %147 = load i64, ptr %146, align 8, !tbaa !132
  br label %151

148:                                              ; preds = %138
  %149 = load i64, ptr %9, align 8, !tbaa !41
  %150 = sub i64 %149, 1
  br label %151

151:                                              ; preds = %148, %144
  %152 = phi i64 [ %147, %144 ], [ %150, %148 ]
  store i64 %152, ptr %10, align 8, !tbaa !41
  %153 = load i64, ptr %10, align 8, !tbaa !41
  %154 = icmp ne i64 %153, 0
  br i1 %154, label %155, label %161

155:                                              ; preds = %151
  %156 = getelementptr inbounds [128 x i8], ptr %8, i64 0, i64 0
  %157 = load ptr, ptr %5, align 8, !tbaa !116
  %158 = getelementptr inbounds nuw %struct.nghttp2_goaway, ptr %157, i32 0, i32 3
  %159 = load ptr, ptr %158, align 8, !tbaa !132
  %160 = load i64, ptr %10, align 8, !tbaa !41
  call void @llvm.memcpy.p0.p0.i64(ptr align 16 %156, ptr align 1 %159, i64 %160, i1 false)
  br label %161

161:                                              ; preds = %155, %151
  %162 = load i64, ptr %10, align 8, !tbaa !41
  %163 = getelementptr inbounds nuw [128 x i8], ptr %8, i64 0, i64 %162
  store i8 0, ptr %163, align 1, !tbaa !132
  %164 = load ptr, ptr %6, align 8, !tbaa !117
  %165 = load i64, ptr %7, align 8, !tbaa !41
  %166 = load ptr, ptr %5, align 8, !tbaa !116
  %167 = getelementptr inbounds nuw %struct.nghttp2_goaway, ptr %166, i32 0, i32 2
  %168 = load i32, ptr %167, align 4, !tbaa !132
  %169 = getelementptr inbounds [128 x i8], ptr %8, i64 0, i64 0
  %170 = load ptr, ptr %5, align 8, !tbaa !116
  %171 = getelementptr inbounds nuw %struct.nghttp2_goaway, ptr %170, i32 0, i32 1
  %172 = load i32, ptr %171, align 8, !tbaa !132
  %173 = call i32 (ptr, i64, ptr, ...) @curl_msnprintf(ptr noundef %164, i64 noundef %165, ptr noundef @.str.24, i32 noundef %168, ptr noundef %169, i32 noundef %172)
  store i32 %173, ptr %4, align 4
  call void @llvm.lifetime.end.p0(i64 8, ptr %10) #6
  call void @llvm.lifetime.end.p0(i64 8, ptr %9) #6
  call void @llvm.lifetime.end.p0(i64 128, ptr %8) #6
  br label %197

174:                                              ; preds = %3
  %175 = load ptr, ptr %6, align 8, !tbaa !117
  %176 = load i64, ptr %7, align 8, !tbaa !41
  %177 = load ptr, ptr %5, align 8, !tbaa !116
  %178 = getelementptr inbounds nuw %struct.nghttp2_window_update, ptr %177, i32 0, i32 1
  %179 = load i32, ptr %178, align 8, !tbaa !132
  %180 = call i32 (ptr, i64, ptr, ...) @curl_msnprintf(ptr noundef %175, i64 noundef %176, ptr noundef @.str.25, i32 noundef %179)
  store i32 %180, ptr %4, align 4
  br label %197

181:                                              ; preds = %3
  %182 = load ptr, ptr %6, align 8, !tbaa !117
  %183 = load i64, ptr %7, align 8, !tbaa !41
  %184 = load ptr, ptr %5, align 8, !tbaa !116
  %185 = getelementptr inbounds nuw %struct.nghttp2_frame_hd, ptr %184, i32 0, i32 2
  %186 = load i8, ptr %185, align 4, !tbaa !132
  %187 = zext i8 %186 to i32
  %188 = load ptr, ptr %5, align 8, !tbaa !116
  %189 = getelementptr inbounds nuw %struct.nghttp2_frame_hd, ptr %188, i32 0, i32 0
  %190 = load i64, ptr %189, align 8, !tbaa !132
  %191 = trunc i64 %190 to i32
  %192 = load ptr, ptr %5, align 8, !tbaa !116
  %193 = getelementptr inbounds nuw %struct.nghttp2_frame_hd, ptr %192, i32 0, i32 3
  %194 = load i8, ptr %193, align 1, !tbaa !132
  %195 = zext i8 %194 to i32
  %196 = call i32 (ptr, i64, ptr, ...) @curl_msnprintf(ptr noundef %182, i64 noundef %183, ptr noundef @.str.26, i32 noundef %187, i32 noundef %191, i32 noundef %195)
  store i32 %196, ptr %4, align 4
  br label %197

197:                                              ; preds = %181, %174, %161, %125, %108, %100, %96, %74, %62, %36, %15
  %198 = load i32, ptr %4, align 4
  ret i32 %198
}