; Function Attrs: nounwind uwtable
define internal fastcc i32 @proxy_h2_fr_print(ptr noundef readonly captures(none) %0, ptr noundef nonnull %1) unnamed_addr #0 {
  %3 = alloca [128 x i8], align 16
  %4 = getelementptr inbounds nuw i8, ptr %0, i64 12
  %5 = load i8, ptr %4, align 4, !tbaa !122
  switch i8 %5, label %85 [
    i8 0, label %6
    i8 1, label %17
    i8 2, label %26
    i8 3, label %33
    i8 4, label %42
    i8 5, label %52
    i8 6, label %60
    i8 7, label %68
    i8 8, label %81
  ]

6:                                                ; preds = %2
  %7 = load i64, ptr %0, align 8, !tbaa !122
  %8 = trunc i64 %7 to i32
  %9 = getelementptr inbounds nuw i8, ptr %0, i64 13
  %10 = load i8, ptr %9, align 1, !tbaa !122
  %11 = and i8 %10, 1
  %12 = zext nneg i8 %11 to i32
  %13 = getelementptr inbounds nuw i8, ptr %0, i64 16
  %14 = load i64, ptr %13, align 8, !tbaa !122
  %15 = trunc i64 %14 to i32
  %16 = tail call i32 (ptr, i64, ptr, ...) @curl_msnprintf(ptr noundef nonnull %1, i64 noundef 255, ptr noundef nonnull @.str.16, i32 noundef %8, i32 noundef %12, i32 noundef %15) #7
  br label %93

17:                                               ; preds = %2
  %18 = load i64, ptr %0, align 8, !tbaa !122
  %19 = trunc i64 %18 to i32
  %20 = getelementptr inbounds nuw i8, ptr %0, i64 13
  %21 = load i8, ptr %20, align 1, !tbaa !122
  %22 = zext i8 %21 to i32
  %23 = lshr i32 %22, 2
  %.lobit57 = and i32 %23, 1
  %24 = and i32 %22, 1
  %25 = tail call i32 (ptr, i64, ptr, ...) @curl_msnprintf(ptr noundef nonnull %1, i64 noundef 255, ptr noundef nonnull @.str.17, i32 noundef %19, i32 noundef %.lobit57, i32 noundef %24) #7
  br label %93

26:                                               ; preds = %2
  %27 = load i64, ptr %0, align 8, !tbaa !122
  %28 = trunc i64 %27 to i32
  %29 = getelementptr inbounds nuw i8, ptr %0, i64 13
  %30 = load i8, ptr %29, align 1, !tbaa !122
  %31 = zext i8 %30 to i32
  %32 = tail call i32 (ptr, i64, ptr, ...) @curl_msnprintf(ptr noundef nonnull %1, i64 noundef 255, ptr noundef nonnull @.str.18, i32 noundef %28, i32 noundef %31) #7
  br label %93

33:                                               ; preds = %2
  %34 = load i64, ptr %0, align 8, !tbaa !122
  %35 = trunc i64 %34 to i32
  %36 = getelementptr inbounds nuw i8, ptr %0, i64 13
  %37 = load i8, ptr %36, align 1, !tbaa !122
  %38 = zext i8 %37 to i32
  %39 = getelementptr inbounds nuw i8, ptr %0, i64 16
  %40 = load i32, ptr %39, align 8, !tbaa !122
  %41 = tail call i32 (ptr, i64, ptr, ...) @curl_msnprintf(ptr noundef nonnull %1, i64 noundef 255, ptr noundef nonnull @.str.19, i32 noundef %35, i32 noundef %38, i32 noundef %40) #7
  br label %93

42:                                               ; preds = %2
  %43 = getelementptr inbounds nuw i8, ptr %0, i64 13
  %44 = load i8, ptr %43, align 1, !tbaa !122
  %45 = and i8 %44, 1
  %.not56 = icmp eq i8 %45, 0
  br i1 %.not56, label %48, label %46

46:                                               ; preds = %42
  %47 = tail call i32 (ptr, i64, ptr, ...) @curl_msnprintf(ptr noundef nonnull %1, i64 noundef 255, ptr noundef nonnull @.str.20) #7
  br label %93

48:                                               ; preds = %42
  %49 = load i64, ptr %0, align 8, !tbaa !122
  %50 = trunc i64 %49 to i32
  %51 = tail call i32 (ptr, i64, ptr, ...) @curl_msnprintf(ptr noundef nonnull %1, i64 noundef 255, ptr noundef nonnull @.str.21, i32 noundef %50) #7
  br label %93

52:                                               ; preds = %2
  %53 = load i64, ptr %0, align 8, !tbaa !122
  %54 = trunc i64 %53 to i32
  %55 = getelementptr inbounds nuw i8, ptr %0, i64 13
  %56 = load i8, ptr %55, align 1, !tbaa !122
  %57 = lshr i8 %56, 2
  %.lobit = and i8 %57, 1
  %58 = zext nneg i8 %.lobit to i32
  %59 = tail call i32 (ptr, i64, ptr, ...) @curl_msnprintf(ptr noundef nonnull %1, i64 noundef 255, ptr noundef nonnull @.str.22, i32 noundef %54, i32 noundef %58) #7
  br label %93

60:                                               ; preds = %2
  %61 = load i64, ptr %0, align 8, !tbaa !122
  %62 = trunc i64 %61 to i32
  %63 = getelementptr inbounds nuw i8, ptr %0, i64 13
  %64 = load i8, ptr %63, align 1, !tbaa !122
  %65 = and i8 %64, 1
  %66 = zext nneg i8 %65 to i32
  %67 = tail call i32 (ptr, i64, ptr, ...) @curl_msnprintf(ptr noundef nonnull %1, i64 noundef 255, ptr noundef nonnull @.str.23, i32 noundef %62, i32 noundef %66) #7
  br label %93

68:                                               ; preds = %2
  call void @llvm.lifetime.start.p0(i64 128, ptr nonnull %3) #7
  %69 = getelementptr inbounds nuw i8, ptr %0, i64 32
  %70 = load i64, ptr %69, align 8, !tbaa !122
  %. = tail call i64 @llvm.umin.i64(i64 %70, i64 127)
  %.not = icmp eq i64 %70, 0
  br i1 %.not, label %74, label %71

71:                                               ; preds = %68
  %72 = getelementptr inbounds nuw i8, ptr %0, i64 24
  %73 = load ptr, ptr %72, align 8, !tbaa !122
  call void @llvm.memcpy.p0.p0.i64(ptr nonnull align 16 %3, ptr align 1 %73, i64 %., i1 false)
  br label %74

74:                                               ; preds = %71, %68
  %75 = getelementptr inbounds nuw [128 x i8], ptr %3, i64 0, i64 %.
  store i8 0, ptr %75, align 1, !tbaa !122
  %76 = getelementptr inbounds nuw i8, ptr %0, i64 20
  %77 = load i32, ptr %76, align 4, !tbaa !122
  %78 = getelementptr inbounds nuw i8, ptr %0, i64 16
  %79 = load i32, ptr %78, align 8, !tbaa !122
  %80 = call i32 (ptr, i64, ptr, ...) @curl_msnprintf(ptr noundef nonnull %1, i64 noundef 255, ptr noundef nonnull @.str.24, i32 noundef %77, ptr noundef nonnull %3, i32 noundef %79) #7
  call void @llvm.lifetime.end.p0(i64 128, ptr nonnull %3) #7
  br label %93

81:                                               ; preds = %2
  %82 = getelementptr inbounds nuw i8, ptr %0, i64 16
  %83 = load i32, ptr %82, align 8, !tbaa !122
  %84 = tail call i32 (ptr, i64, ptr, ...) @curl_msnprintf(ptr noundef nonnull %1, i64 noundef 255, ptr noundef nonnull @.str.25, i32 noundef %83) #7
  br label %93

85:                                               ; preds = %2
  %86 = zext i8 %5 to i32
  %87 = load i64, ptr %0, align 8, !tbaa !122
  %88 = trunc i64 %87 to i32
  %89 = getelementptr inbounds nuw i8, ptr %0, i64 13
  %90 = load i8, ptr %89, align 1, !tbaa !122
  %91 = zext i8 %90 to i32
  %92 = tail call i32 (ptr, i64, ptr, ...) @curl_msnprintf(ptr noundef nonnull %1, i64 noundef 255, ptr noundef nonnull @.str.26, i32 noundef %86, i32 noundef %88, i32 noundef %91) #7
  br label %93

93:                                               ; preds = %85, %81, %74, %60, %52, %48, %46, %33, %26, %17, %6
  %.0 = phi i32 [ %92, %85 ], [ %84, %81 ], [ %80, %74 ], [ %67, %60 ], [ %59, %52 ], [ %47, %46 ], [ %51, %48 ], [ %41, %33 ], [ %32, %26 ], [ %25, %17 ], [ %16, %6 ]
  ret i32 %.0
}